; Function Attrs: nounwind uwtable
define hidden void @Curl_xfer_setup_nop(ptr noundef %0) local_unnamed_addr #0 {
  %2 = getelementptr inbounds nuw i8, ptr %0, i64 240
  %3 = getelementptr inbounds nuw i8, ptr %0, i64 24
  %4 = load ptr, ptr %3, align 8, !tbaa !85
  %5 = tail call zeroext i1 @Curl_req_want_send(ptr noundef %0) #6
  %6 = tail call zeroext i1 @Curl_conn_is_multiplex(ptr noundef %4, i32 noundef 0) #6
  %7 = getelementptr inbounds nuw i8, ptr %4, i64 992
  store i32 -1, ptr %7, align 8, !tbaa !104
  %8 = getelementptr inbounds nuw i8, ptr %4, i64 996
  store i32 -1, ptr %8, align 4, !tbaa !86
  %9 = getelementptr inbounds nuw i8, ptr %0, i64 457
  %10 = load i32, ptr %9, align 1
  store i64 -1, ptr %2, align 8, !tbaa !115
  %11 = and i32 %10, -3211266
  store i32 %11, ptr %9, align 1
  %12 = and i32 %10, 131072
  %or.cond.not.i = icmp eq i32 %12, 0
  %or.cond.not = select i1 %or.cond.not.i, i1 %5, i1 false
  br i1 %or.cond.not, label %13, label %xfer_setup.exit

13:                                               ; preds = %1
  %14 = getelementptr inbounds nuw i8, ptr %0, i64 316
  %15 = load i32, ptr %14, align 4, !tbaa !97
  %16 = or i32 %15, 2
  store i32 %16, ptr %14, align 4, !tbaa !97
  br label %xfer_setup.exit

xfer_setup.exit:                                  ; preds = %1, %13
  ret void
}